; Function Attrs: inlinehint mustprogress nounwind optsize uwtable
define internal noundef nonnull ptr @_ZZN8nanobind6detail11func_createILb0ELb1EZNS_4initIJEE7executeINS_6class_IZL30nanobind_init_test_classes_extRNS_7module_EE7MyClassJEEEJEEEvRT_DpRKT0_EUlNS_18pointer_and_handleIS8_EEE_vJSH_EJLm0EEJNS_5scopeENS_4nameENS_9is_methodEEEEP7_objectOT1_PFT2_DpT3_ESt16integer_sequenceImJXspT4_EEEDpRKT5_ENUlPvPSN_PhNS_9rv_policyEPNS0_12cleanup_listEE_8__invokeES11_S12_S13_S14_S16_(ptr readnone captures(none) %0, ptr noundef readonly captures(none) %1, ptr noundef readonly captures(none) %2, i32 %3, ptr noundef %4) #20 align 2 personality ptr @__gxx_personality_v0 {
_ZN8nanobind6detail11type_casterINS_18pointer_and_handleIZL30nanobind_init_test_classes_extRNS_7module_EE7MyClassEEiE11from_pythonENS_6handleEhPNS0_12cleanup_listE.exit:
  %5 = alloca %"struct.nanobind::detail::type_caster.591", align 8
  %6 = load ptr, ptr %1, align 8, !tbaa !23
  %7 = load i8, ptr %2, align 1, !tbaa !61
  call void @llvm.lifetime.start.p0(i64 8, ptr nonnull %5) #37
  %8 = and i8 %7, 8
  %.not.i.i = icmp eq i8 %8, 0
  %9 = and i8 %7, -2
  %spec.select.i.i = select i1 %.not.i.i, i8 %7, i8 %9
  %10 = call noundef zeroext i1 @_ZN8nanobind6detail11nb_type_getEPKSt9type_infoP7_objecthPNS0_12cleanup_listEPPv(ptr noundef nonnull @_ZTIZL30nanobind_init_test_classes_extRN8nanobind7module_EE7MyClass, ptr noundef %6, i8 noundef zeroext %spec.select.i.i, ptr noundef %4, ptr noundef nonnull align 8 dereferenceable(8) %5) #35
  call void @llvm.lifetime.end.p0(i64 8, ptr nonnull %5) #37
  br i1 %10, label %11, label %_ZZN8nanobind6detail11func_createILb0ELb1EZNS_4initIJEE7executeINS_6class_IZL30nanobind_init_test_classes_extRNS_7module_EE7MyClassJEEEJEEEvRT_DpRKT0_EUlNS_18pointer_and_handleIS8_EEE_vJSH_EJLm0EEJNS_5scopeENS_4nameENS_9is_methodEEEEP7_objectOT1_PFT2_DpT3_ESt16integer_sequenceImJXspT4_EEEDpRKT5_ENKUlPvPSN_PhNS_9rv_policyEPNS0_12cleanup_listEE_clES11_S12_S13_S14_S16_.exit

11:                                               ; preds = %_ZN8nanobind6detail11type_casterINS_18pointer_and_handleIZL30nanobind_init_test_classes_extRNS_7module_EE7MyClassEEiE11from_pythonENS_6handleEhPNS0_12cleanup_listE.exit
  %12 = load i64, ptr @_Py_NoneStruct, align 8, !tbaa !86
  %13 = add nsw i64 %12, 1
  store i64 %13, ptr @_Py_NoneStruct, align 8, !tbaa !86
  br label %_ZZN8nanobind6detail11func_createILb0ELb1EZNS_4initIJEE7executeINS_6class_IZL30nanobind_init_test_classes_extRNS_7module_EE7MyClassJEEEJEEEvRT_DpRKT0_EUlNS_18pointer_and_handleIS8_EEE_vJSH_EJLm0EEJNS_5scopeENS_4nameENS_9is_methodEEEEP7_objectOT1_PFT2_DpT3_ESt16integer_sequenceImJXspT4_EEEDpRKT5_ENKUlPvPSN_PhNS_9rv_policyEPNS0_12cleanup_listEE_clES11_S12_S13_S14_S16_.exit

_ZZN8nanobind6detail11func_createILb0ELb1EZNS_4initIJEE7executeINS_6class_IZL30nanobind_init_test_classes_extRNS_7module_EE7MyClassJEEEJEEEvRT_DpRKT0_EUlNS_18pointer_and_handleIS8_EEE_vJSH_EJLm0EEJNS_5scopeENS_4nameENS_9is_methodEEEEP7_objectOT1_PFT2_DpT3_ESt16integer_sequenceImJXspT4_EEEDpRKT5_ENKUlPvPSN_PhNS_9rv_policyEPNS0_12cleanup_listEE_clES11_S12_S13_S14_S16_.exit: ; preds = %_ZN8nanobind6detail11type_casterINS_18pointer_and_handleIZL30nanobind_init_test_classes_extRNS_7module_EE7MyClassEEiE11from_pythonENS_6handleEhPNS0_12cleanup_listE.exit, %11
  %.0.i = phi ptr [ @_Py_NoneStruct, %11 ], [ inttoptr (i64 1 to ptr), %_ZN8nanobind6detail11type_casterINS_18pointer_and_handleIZL30nanobind_init_test_classes_extRNS_7module_EE7MyClassEEiE11from_pythonENS_6handleEhPNS0_12cleanup_listE.exit ]
  ret ptr %.0.i
}